; Function Attrs: null_pointer_is_valid sspstrong uwtable
define internal i32 @dissect_t125_T_userData(i1 noundef zeroext %0, ptr noundef %1, i32 noundef %2, ptr noundef %3, ptr noundef %4, i32 noundef %5) #0 {
  %7 = alloca ptr, align 8
  %8 = alloca ptr, align 8
  call void @llvm.lifetime.start.p0(i64 8, ptr nonnull %7) #5
  store ptr null, ptr %7, align 8
  call void @llvm.lifetime.start.p0(i64 8, ptr nonnull %8) #5
  %9 = call i32 @dissect_ber_octet_string(i1 noundef zeroext %0, ptr noundef %3, ptr noundef %4, ptr noundef %1, i32 noundef %2, i32 noundef %5, ptr noundef nonnull %7)
  %10 = load ptr, ptr %7, align 8
  %.not = icmp eq ptr %10, null
  br i1 %.not, label %17, label %11

11:                                               ; preds = %6
  %12 = load ptr, ptr @t125_heur_subdissector_list, align 8
  %13 = getelementptr inbounds nuw i8, ptr %3, i64 16
  %14 = load ptr, ptr %13, align 8
  %15 = load ptr, ptr @top_tree, align 8
  %16 = call zeroext i1 @dissector_try_heuristic(ptr noundef %12, ptr noundef nonnull %10, ptr noundef %14, ptr noundef %15, ptr noundef nonnull %8, ptr noundef null)
  br label %17

17:                                               ; preds = %11, %6
  call void @llvm.lifetime.end.p0(i64 8, ptr nonnull %8) #5
  call void @llvm.lifetime.end.p0(i64 8, ptr nonnull %7) #5
  ret i32 %9
}